Certificate:
    Data:
        Version: 3 (0x2)
        Serial Number: 4102 (0x1006)
    Signature Algorithm: sha256WithRSAEncryption
        Issuer: C=CN, ST=Hubei, L=WuHan, O=Hust, OU=Hust, CN=XiongRui/emailAddress=U202011107@hust.edu.cn
        Validity
            Not Before: Jun 21 04:12:32 2023 GMT
            Not After : Jun 20 04:12:32 2024 GMT
        Subject: C=CN, ST=Hubei, O=Hust, OU=Hust, CN=XiongRui/emailAddress=U202011107@hust.edu.cn
        Subject Public Key Info:
            Public Key Algorithm: rsaEncryption
                Public-Key: (1024 bit)
                Modulus:
                    00:b7:99:88:08:8d:e0:68:f6:fd:35:51:72:f6:b4:
                    90:0b:53:6f:70:ed:67:cb:33:f9:65:47:d6:ae:6f:
                    c0:9c:7f:bc:22:2c:0c:5e:8c:2e:27:e6:ad:f7:5e:
                    b5:1e:13:da:7d:5b:e6:21:70:7d:91:1f:02:82:cd:
                    e8:4e:e9:ad:0d:38:bf:63:5e:4a:05:40:e9:61:02:
                    2b:b7:92:9e:a2:98:3e:a9:36:37:4f:8d:aa:6c:a5:
                    f4:10:3d:f1:10:6f:cd:16:b6:0d:06:e1:59:90:5a:
                    96:1f:72:cf:82:00:4b:53:8a:83:0e:5c:7b:2d:ac:
                    10:b9:60:32:96:1f:07:2e:5b
                Exponent: 65537 (0x10001)
        X509v3 extensions:
            X509v3 Basic Constraints: 
                CA:FALSE
            Netscape Comment: 
                OpenSSL Generated Certificate
            X509v3 Subject Key Identifier: 
                2F:7D:3B:12:2D:29:C6:20:D2:09:7E:0A:DA:92:67:09:B8:DF:D6:C8
            X509v3 Authority Key Identifier: 
                keyid:01:DB:74:7A:22:CC:5C:59:FB:CB:AC:33:46:B4:5B:8C:CE:61:AE:58

    Signature Algorithm: sha256WithRSAEncryption
         04:a9:fb:da:25:6e:40:a8:2b:7e:f1:e5:42:77:7a:15:a7:93:
         f5:68:d7:40:3a:86:d8:99:e1:ab:8d:60:91:22:37:b7:fe:ca:
         87:1f:be:8e:84:61:93:21:b7:0f:e0:d6:16:d4:06:83:6a:f8:
         28:2b:b8:82:9a:fc:bc:8c:5a:80:bb:e4:29:df:06:e5:1e:48:
         08:8c:f6:79:88:2e:02:a8:c2:0f:68:f0:6b:4c:2c:b8:23:ee:
         a3:2c:76:fa:d4:e8:7e:a7:ae:6c:11:aa:0d:9c:f9:79:c2:41:
         26:b0:96:ec:e2:05:9a:37:0a:66:7f:11:bb:ba:1d:72:91:61:
         38:46:b0:a8:b4:f4:db:f0:9e:c0:88:b5:5d:63:49:12:e5:46:
         b6:46:3e:83:f4:5d:37:9f:98:d2:7d:65:df:fb:ca:5a:8e:64:
         59:4b:b5:fb:f1:64:00:d9:61:71:64:59:ca:f9:1a:9c:d4:26:
         cb:62:f3:96:53:14:e8:aa:94:4b:70:d6:2a:3b:65:8f:7c:7d:
         86:e5:8b:3f:a0:a8:1a:c5:a6:c7:ca:a8:1e:55:c3:f7:86:f9:
         b6:93:c7:91:3e:d1:d0:f8:51:12:22:35:bc:84:5d:e4:69:d8:
         1e:da:eb:6e:d6:a9:03:82:80:0b:b6:2b:ca:0f:a3:50:20:72:
         ea:29:86:35
-----BEGIN CERTIFICATE-----
MIIDbjCCAlagAwIBAgICEAYwDQYJKoZIhvcNAQELBQAwgYUxCzAJBgNVBAYTAkNO
MQ4wDAYDVQQIDAVIdWJlaTEOMAwGA1UEBwwFV3VIYW4xDTALBgNVBAoMBEh1c3Qx
DTALBgNVBAsMBEh1c3QxETAPBgNVBAMMCFhpb25nUnVpMSUwIwYJKoZIhvcNAQkB
FhZVMjAyMDExMTA3QGh1c3QuZWR1LmNuMB4XDTIzMDYyMTA0MTIzMloXDTI0MDYy
MDA0MTIzMlowdTELMAkGA1UEBhMCQ04xDjAMBgNVBAgMBUh1YmVpMQ0wCwYDVQQK
DARIdXN0MQ0wCwYDVQQLDARIdXN0MREwDwYDVQQDDAhYaW9uZ1J1aTElMCMGCSqG
SIb3DQEJARYWVTIwMjAxMTEwN0BodXN0LmVkdS5jbjCBnzANBgkqhkiG9w0BAQEF
AAOBjQAwgYkCgYEAt5mICI3gaPb9NVFy9rSQC1NvcO1nyzP5ZUfWrm/AnH+8IiwM
XowuJ+at9161HhPafVvmIXB9kR8Cgs3oTumtDTi/Y15KBUDpYQIrt5Keopg+qTY3
T42qbKX0ED3xEG/NFrYNBuFZkFqWH3LPggBLU4qDDlx7LawQuWAylh8HLlsCAwEA
AaN7MHkwCQYDVR0TBAIwADAsBglghkgBhvhCAQ0EHxYdT3BlblNTTCBHZW5lcmF0
ZWQgQ2VydGlmaWNhdGUwHQYDVR0OBBYEFC99OxItKcYg0gl+CtqSZwm439bIMB8G
A1UdIwQYMBaAFAHbdHoizFxZ+8usM0a0W4zOYa5YMA0GCSqGSIb3DQEBCwUAA4IB
AQAEqfvaJW5AqCt+8eVCd3oVp5P1aNdAOobYmeGrjWCRIje3/sqHH76OhGGTIbcP
4NYW1AaDavgoK7iCmvy8jFqAu+Qp3wblHkgIjPZ5iC4CqMIPaPBrTCy4I+6jLHb6
1Oh+p65sEaoNnPl5wkEmsJbs4gWaNwpmfxG7uh1ykWE4RrCotPTb8J7AiLVdY0kS
5Ua2Rj6D9F03n5jSfWXf+8pajmRZS7X78WQA2WFxZFnK+Rqc1CbLYvOWUxToqpRL
cNYqO2WPfH2G5Ys/oKgaxabHyqgeVcP3hvm2k8eRPtHQ+FESIjW8hF3kadge2utu
1qkDgoALtivKD6NQIHLqKYY1
-----END CERTIFICATE-----
